target datalayout = "e-m:e-p270:32:32-p271:32:32-p272:64:64-i64:64-i128:128-f80:128-n8:16:32:64-S128"
target triple = "x86_64-pc-linux-gnu"

%class.methodHandle = type { ptr, ptr }
%class.RetTable = type { ptr }
%class.GenerateOopMap = type { ptr, %class.methodHandle, %class.RetTable, i32, i32, i32, i32, i8, %class.Handle, i8, i8, i8, i32, ptr, ptr, i32, i32, ptr, i32, i32, %class.ResourceBitMap, i8, i8, ptr, ptr, i8, i32, ptr, ptr }
%class.Handle = type { ptr }
%class.ResourceBitMap = type { %class.GrowableBitMap }
%class.GrowableBitMap = type { %class.BitMap }
%class.BitMap = type { ptr, i64 }
%class.BasicBlock = type { i8, i32, i32, i32, i32, ptr, i32, i32 }

@g_assert_poison = external global ptr, align 8
@.str = private unnamed_addr constant [42 x i8] c"src/hotspot/share/oops/generateOopMap.cpp\00", align 1
@.str.24 = private unnamed_addr constant [21 x i8] c"should have found BB\00", align 1

; Function Attrs: mustprogress nounwind uwtable
define hidden noundef ptr @_ZNK14GenerateOopMap26get_basic_block_containingEi(ptr noundef nonnull align 8 dereferenceable(176) %0, i32 noundef %1) #1 align 2 {
  %3 = alloca ptr, align 8
  %4 = alloca ptr, align 8
  %5 = alloca i32, align 4
  %6 = alloca ptr, align 8
  %7 = alloca i32, align 4
  %8 = alloca i32, align 4
  %9 = alloca i32, align 4
  %10 = alloca i32, align 4
  %11 = alloca i32, align 4
  store ptr %0, ptr %4, align 8
  store i32 %1, ptr %5, align 4
  %12 = load ptr, ptr %4, align 8
  %13 = getelementptr inbounds %class.GenerateOopMap, ptr %12, i32 0, i32 17
  %14 = load ptr, ptr %13, align 8
  store ptr %14, ptr %6, align 8
  store i32 0, ptr %7, align 4
  %15 = getelementptr inbounds %class.GenerateOopMap, ptr %12, i32 0, i32 19
  %16 = load i32, ptr %15, align 4
  %17 = sub nsw i32 %16, 1
  store i32 %17, ptr %8, align 4
  br label %18

18:                                               ; preds = %75, %2
  %19 = load i32, ptr %7, align 4
  %20 = load i32, ptr %8, align 4
  %21 = icmp sle i32 %19, %20
  br i1 %21, label %22, label %76

22:                                               ; preds = %18
  %23 = load i32, ptr %7, align 4
  %24 = load i32, ptr %8, align 4
  %25 = add nsw i32 %23, %24
  %26 = sdiv i32 %25, 2
  store i32 %26, ptr %9, align 4
  %27 = load ptr, ptr %6, align 8
  %28 = load i32, ptr %9, align 4
  %29 = sext i32 %28 to i64
  %30 = getelementptr inbounds %class.BasicBlock, ptr %27, i64 %29
  %31 = getelementptr inbounds %class.BasicBlock, ptr %30, i32 0, i32 1
  %32 = load i32, ptr %31, align 4
  store i32 %32, ptr %10, align 4
  %33 = load i32, ptr %9, align 4
  %34 = getelementptr inbounds %class.GenerateOopMap, ptr %12, i32 0, i32 19
  %35 = load i32, ptr %34, align 4
  %36 = sub nsw i32 %35, 1
  %37 = icmp eq i32 %33, %36
  br i1 %37, label %38, label %43

38:                                               ; preds = %22
  %39 = load ptr, ptr %6, align 8
  %40 = load i32, ptr %9, align 4
  %41 = sext i32 %40 to i64
  %42 = getelementptr inbounds %class.BasicBlock, ptr %39, i64 %41
  store ptr %42, ptr %3, align 8
  br label %80

43:                                               ; preds = %22
  %44 = load ptr, ptr %6, align 8
  %45 = load i32, ptr %9, align 4
  %46 = add nsw i32 %45, 1
  %47 = sext i32 %46 to i64
  %48 = getelementptr inbounds %class.BasicBlock, ptr %44, i64 %47
  %49 = getelementptr inbounds %class.BasicBlock, ptr %48, i32 0, i32 1
  %50 = load i32, ptr %49, align 4
  store i32 %50, ptr %11, align 4
  br label %51

51:                                               ; preds = %43
  %52 = load i32, ptr %10, align 4
  %53 = load i32, ptr %5, align 4
  %54 = icmp sle i32 %52, %53
  br i1 %54, label %55, label %64

55:                                               ; preds = %51
  %56 = load i32, ptr %5, align 4
  %57 = load i32, ptr %11, align 4
  %58 = icmp slt i32 %56, %57
  br i1 %58, label %59, label %64

59:                                               ; preds = %55
  %60 = load ptr, ptr %6, align 8
  %61 = load i32, ptr %9, align 4
  %62 = sext i32 %61 to i64
  %63 = getelementptr inbounds %class.BasicBlock, ptr %60, i64 %62
  store ptr %63, ptr %3, align 8
  br label %80

64:                                               ; preds = %55, %51
  %65 = load i32, ptr %10, align 4
  %66 = load i32, ptr %5, align 4
  %67 = icmp slt i32 %65, %66
  br i1 %67, label %68, label %71

68:                                               ; preds = %64
  %69 = load i32, ptr %9, align 4
  %70 = add nsw i32 %69, 1
  store i32 %70, ptr %7, align 4
  br label %74

71:                                               ; preds = %64
  %72 = load i32, ptr %9, align 4
  %73 = sub nsw i32 %72, 1
  store i32 %73, ptr %8, align 4
  br label %74

74:                                               ; preds = %71, %68
  br label %75

75:                                               ; preds = %74
  br label %18, !llvm.loop !19

76:                                               ; preds = %18
  br label %77

77:                                               ; preds = %76
  %78 = load ptr, ptr @g_assert_poison, align 8
  store i8 88, ptr %78, align 1
  call void (i32, ptr, i32, ptr, ...) @_Z12report_fatal11VMErrorTypePKciS1_z(i32 noundef -536870912, ptr noundef @.str, i32 noundef 651, ptr noundef @.str.24) #11
  unreachable

79:                                               ; No predecessors!
  store ptr null, ptr %3, align 8
  br label %80

80:                                               ; preds = %79, %59, %38
  %81 = load ptr, ptr %3, align 8
  ret ptr %81
}

; Function Attrs: mustprogress nounwind uwtable
define linkonce_odr hidden void @_ZN10BasicBlock13mark_as_aliveEv(ptr noundef nonnull align 8 dereferenceable(40) %0) #1 comdat align 2 {
  %2 = alloca ptr, align 8
  store ptr %0, ptr %2, align 8
  %3 = load ptr, ptr %2, align 8
  %4 = getelementptr inbounds %class.BasicBlock, ptr %3, i32 0, i32 6
  store i32 -1, ptr %4, align 8
  ret void
}

; Function Attrs: mustprogress nounwind uwtable
define linkonce_odr hidden noundef zeroext i1 @_ZNK10BasicBlock7is_deadEv(ptr noundef nonnull align 8 dereferenceable(40) %0) #1 comdat align 2 {
  %2 = alloca ptr, align 8
  store ptr %0, ptr %2, align 8
  %3 = load ptr, ptr %2, align 8
  %4 = getelementptr inbounds %class.BasicBlock, ptr %3, i32 0, i32 6
  %5 = load i32, ptr %4, align 8
  %6 = icmp eq i32 %5, -2
  ret i1 %6
}

; Function Attrs: mustprogress nounwind uwtable
define hidden noundef ptr @_ZNK14GenerateOopMap18get_basic_block_atEi(ptr noundef nonnull align 8 dereferenceable(176) %0, i32 noundef %1) #1 align 2 {
  %3 = alloca ptr, align 8
  %4 = alloca i32, align 4
  %5 = alloca ptr, align 8
  store ptr %0, ptr %3, align 8
  store i32 %1, ptr %4, align 4
  %6 = load ptr, ptr %3, align 8
  %7 = load i32, ptr %4, align 4
  %8 = call noundef ptr @_ZNK14GenerateOopMap26get_basic_block_containingEi(ptr noundef nonnull align 8 dereferenceable(176) %6, i32 noundef %7)
  store ptr %8, ptr %5, align 8
  %9 = load ptr, ptr %5, align 8
  ret ptr %9
}

; Function Attrs: mustprogress nounwind uwtable
define hidden void @_ZN14GenerateOopMap20reachable_basicblockEPS_iPi(ptr noundef %0, i32 noundef %1, ptr noundef %2) #1 align 2 {
  %4 = alloca ptr, align 8
  %5 = alloca i32, align 4
  %6 = alloca ptr, align 8
  %7 = alloca ptr, align 8
  store ptr %0, ptr %4, align 8
  store i32 %1, ptr %5, align 4
  store ptr %2, ptr %6, align 8
  %8 = load ptr, ptr %4, align 8
  %9 = load i32, ptr %5, align 4
  %10 = call noundef ptr @_ZNK14GenerateOopMap18get_basic_block_atEi(ptr noundef nonnull align 8 dereferenceable(176) %8, i32 noundef %9)
  store ptr %10, ptr %7, align 8
  %11 = load ptr, ptr %7, align 8
  %12 = call noundef zeroext i1 @_ZNK10BasicBlock7is_deadEv(ptr noundef nonnull align 8 dereferenceable(40) %11)
  br i1 %12, label %13, label %16

13:                                               ; preds = %3
  %14 = load ptr, ptr %7, align 8
  call void @_ZN10BasicBlock13mark_as_aliveEv(ptr noundef nonnull align 8 dereferenceable(40) %14)
  %15 = load ptr, ptr %6, align 8
  store i32 1, ptr %15, align 4
  br label %16

16:                                               ; preds = %13, %3
  ret void
}