; Function Attrs: mustprogress nounwind uwtable
define hidden void @_ZN14GenerateOopMap20reachable_basicblockEPS_iPi(ptr nocapture noundef readonly %0, i32 noundef %1, ptr nocapture noundef writeonly %2) #0 align 2 {
  %4 = getelementptr inbounds i8, ptr %0, i64 96
  %5 = load ptr, ptr %4, align 8
  %6 = getelementptr inbounds i8, ptr %0, i64 108
  %7 = load i32, ptr %6, align 4
  %8 = add nsw i32 %7, -1
  %.not28.i.i = icmp slt i32 %7, 1
  br i1 %.not28.i.i, label %._crit_edge.i.i, label %.lr.ph.i.i

.lr.ph.i.i:                                       ; preds = %3, %23
  %.02230.i.i = phi i32 [ %.1.i.i, %23 ], [ 0, %3 ]
  %.02329.i.i = phi i32 [ %.124.i.i, %23 ], [ %8, %3 ]
  %9 = add nuw nsw i32 %.02329.i.i, %.02230.i.i
  %10 = lshr i32 %9, 1
  %11 = zext nneg i32 %10 to i64
  %12 = getelementptr inbounds %class.BasicBlock, ptr %5, i64 %11
  %13 = getelementptr inbounds i8, ptr %12, i64 4
  %14 = load i32, ptr %13, align 4
  %15 = icmp eq i32 %10, %8
  br i1 %15, label %_ZNK14GenerateOopMap18get_basic_block_atEi.exit, label %16

16:                                               ; preds = %.lr.ph.i.i
  %17 = add nuw nsw i32 %10, 1
  %.not27.i.i = icmp sgt i32 %14, %1
  br i1 %.not27.i.i, label %23, label %18

18:                                               ; preds = %16
  %19 = zext nneg i32 %17 to i64
  %20 = getelementptr inbounds %class.BasicBlock, ptr %5, i64 %19, i32 1
  %21 = load i32, ptr %20, align 4
  %22 = icmp sgt i32 %21, %1
  br i1 %22, label %_ZNK14GenerateOopMap18get_basic_block_atEi.exit, label %23

23:                                               ; preds = %18, %16
  %24 = icmp slt i32 %14, %1
  %25 = add nsw i32 %10, -1
  %.124.i.i = select i1 %24, i32 %.02329.i.i, i32 %25
  %.1.i.i = select i1 %24, i32 %17, i32 %.02230.i.i
  %.not.i.i = icmp sgt i32 %.1.i.i, %.124.i.i
  br i1 %.not.i.i, label %._crit_edge.i.i, label %.lr.ph.i.i, !llvm.loop !16

._crit_edge.i.i:                                  ; preds = %23, %3
  %26 = load ptr, ptr @g_assert_poison, align 8
  store i8 88, ptr %26, align 1
  tail call void (i32, ptr, i32, ptr, ...) @_Z12report_fatal11VMErrorTypePKciS1_z(i32 noundef -536870912, ptr noundef nonnull @.str, i32 noundef 651, ptr noundef nonnull @.str.24) #19
  unreachable

_ZNK14GenerateOopMap18get_basic_block_atEi.exit:  ; preds = %.lr.ph.i.i, %18
  %27 = getelementptr inbounds i8, ptr %12, i64 32
  %28 = load i32, ptr %27, align 8
  %29 = icmp eq i32 %28, -2
  br i1 %29, label %30, label %31

30:                                               ; preds = %_ZNK14GenerateOopMap18get_basic_block_atEi.exit
  store i32 -1, ptr %27, align 8
  store i32 1, ptr %2, align 4
  br label %31

31:                                               ; preds = %30, %_ZNK14GenerateOopMap18get_basic_block_atEi.exit
  ret void
}